target datalayout = "e-m:e-p270:32:32-p271:32:32-p272:64:64-i64:64-i128:128-f80:128-n8:16:32:64-S128"
target triple = "x86_64-pc-linux-gnu"

%class.Register = type { i32 }
%class.XMMRegister = type { i32 }
%class.RelocationHolder = type { [40 x i8] }
%class.AddressLiteral = type { %class.RelocationHolder, i8, ptr }

; Function Attrs: mustprogress nounwind uwtable
define linkonce_odr hidden noundef ptr @_ZNK16RelocationHolder5relocEv(ptr noundef nonnull align 8 dereferenceable(40) %0) #1 comdat align 2 {
  %2 = alloca ptr, align 8
  store ptr %0, ptr %2, align 8
  %3 = load ptr, ptr %2, align 8
  %4 = getelementptr inbounds %class.RelocationHolder, ptr %3, i32 0, i32 0
  %5 = getelementptr inbounds [40 x i8], ptr %4, i64 0, i64 0
  ret ptr %5
}

; Function Attrs: mustprogress nounwind uwtable
define linkonce_odr hidden void @_ZN16RelocationHolderC2ERKS_(ptr noundef nonnull align 8 dereferenceable(40) %0, ptr noundef nonnull align 8 dereferenceable(40) %1) unnamed_addr #1 comdat align 2 {
  %3 = alloca ptr, align 8
  %4 = alloca ptr, align 8
  store ptr %0, ptr %3, align 8
  store ptr %1, ptr %4, align 8
  %5 = load ptr, ptr %3, align 8
  %6 = load ptr, ptr %4, align 8
  %7 = call noundef ptr @_ZNK16RelocationHolder5relocEv(ptr noundef nonnull align 8 dereferenceable(40) %6)
  %8 = load ptr, ptr %7, align 8
  %9 = getelementptr inbounds ptr, ptr %8, i64 2
  %10 = load ptr, ptr %9, align 8
  call void %10(ptr noundef nonnull align 8 dereferenceable(20) %7, ptr noundef nonnull align 8 dereferenceable(40) %5)
  ret void
}

; Function Attrs: mustprogress nounwind uwtable
define linkonce_odr hidden void @_ZN14AddressLiteralC2ERKS_(ptr noundef nonnull align 8 dereferenceable(56) %0, ptr noundef nonnull align 8 dereferenceable(56) %1) unnamed_addr #1 comdat align 2 {
  %3 = alloca ptr, align 8
  %4 = alloca ptr, align 8
  store ptr %0, ptr %3, align 8
  store ptr %1, ptr %4, align 8
  %5 = load ptr, ptr %3, align 8
  %6 = getelementptr inbounds %class.AddressLiteral, ptr %5, i32 0, i32 0
  %7 = load ptr, ptr %4, align 8
  %8 = getelementptr inbounds %class.AddressLiteral, ptr %7, i32 0, i32 0
  call void @_ZN16RelocationHolderC2ERKS_(ptr noundef nonnull align 8 dereferenceable(40) %6, ptr noundef nonnull align 8 dereferenceable(40) %8)
  %9 = getelementptr inbounds %class.AddressLiteral, ptr %5, i32 0, i32 1
  %10 = load ptr, ptr %4, align 8
  %11 = getelementptr inbounds %class.AddressLiteral, ptr %10, i32 0, i32 1
  call void @llvm.memcpy.p0.p0.i64(ptr align 8 %9, ptr align 8 %11, i64 16, i1 false)
  ret void
}

; Function Attrs: mustprogress nounwind uwtable
define hidden void @_ZN14MacroAssembler7vmovdquE11XMMRegister14AddressLiterali8Register(ptr noundef nonnull align 8 dereferenceable(40) %0, i32 %1, ptr noundef %2, i32 noundef %3, i32 %4) #1 align 2 {
  %6 = alloca %class.XMMRegister, align 4
  %7 = alloca %class.Register, align 4
  %8 = alloca ptr, align 8
  %9 = alloca ptr, align 8
  %10 = alloca i32, align 4
  %11 = alloca %class.XMMRegister, align 4
  %12 = alloca %class.AddressLiteral, align 8
  %13 = alloca %class.Register, align 4
  %14 = alloca %class.XMMRegister, align 4
  %15 = alloca %class.AddressLiteral, align 8
  %16 = alloca %class.Register, align 4
  %17 = alloca %class.XMMRegister, align 4
  %18 = alloca %class.AddressLiteral, align 8
  %19 = alloca %class.Register, align 4
  %20 = getelementptr inbounds %class.XMMRegister, ptr %6, i32 0, i32 0
  store i32 %1, ptr %20, align 4
  %21 = getelementptr inbounds %class.Register, ptr %7, i32 0, i32 0
  store i32 %4, ptr %21, align 4
  store ptr %0, ptr %8, align 8
  store ptr %2, ptr %9, align 8
  store i32 %3, ptr %10, align 4
  %22 = load ptr, ptr %8, align 8
  %23 = load i32, ptr %10, align 4
  %24 = icmp eq i32 %23, 2
  br i1 %24, label %25, label %30

25:                                               ; preds = %5
  call void @llvm.memcpy.p0.p0.i64(ptr align 4 %11, ptr align 4 %6, i64 4, i1 false)
  call void @_ZN14AddressLiteralC2ERKS_(ptr noundef nonnull align 8 dereferenceable(56) %12, ptr noundef nonnull align 8 dereferenceable(56) %2)
  call void @llvm.memcpy.p0.p0.i64(ptr align 4 %13, ptr align 4 %7, i64 4, i1 false)
  %26 = getelementptr inbounds %class.XMMRegister, ptr %11, i32 0, i32 0
  %27 = load i32, ptr %26, align 4
  %28 = getelementptr inbounds %class.Register, ptr %13, i32 0, i32 0
  %29 = load i32, ptr %28, align 4
  call void @_ZN14MacroAssembler9evmovdquqE11XMMRegister14AddressLiterali8Register(ptr noundef nonnull align 8 dereferenceable(40) %22, i32 %27, ptr noundef %12, i32 noundef 2, i32 %29)
  br label %44

30:                                               ; preds = %5
  %31 = load i32, ptr %10, align 4
  %32 = icmp eq i32 %31, 1
  br i1 %32, label %33, label %38

33:                                               ; preds = %30
  call void @llvm.memcpy.p0.p0.i64(ptr align 4 %14, ptr align 4 %6, i64 4, i1 false)
  call void @_ZN14AddressLiteralC2ERKS_(ptr noundef nonnull align 8 dereferenceable(56) %15, ptr noundef nonnull align 8 dereferenceable(56) %2)
  call void @llvm.memcpy.p0.p0.i64(ptr align 4 %16, ptr align 4 %7, i64 4, i1 false)
  %34 = getelementptr inbounds %class.XMMRegister, ptr %14, i32 0, i32 0
  %35 = load i32, ptr %34, align 4
  %36 = getelementptr inbounds %class.Register, ptr %16, i32 0, i32 0
  %37 = load i32, ptr %36, align 4
  call void @_ZN14MacroAssembler7vmovdquE11XMMRegister14AddressLiteral8Register(ptr noundef nonnull align 8 dereferenceable(40) %22, i32 %35, ptr noundef %15, i32 %37)
  br label %43

38:                                               ; preds = %30
  call void @llvm.memcpy.p0.p0.i64(ptr align 4 %17, ptr align 4 %6, i64 4, i1 false)
  call void @_ZN14AddressLiteralC2ERKS_(ptr noundef nonnull align 8 dereferenceable(56) %18, ptr noundef nonnull align 8 dereferenceable(56) %2)
  call void @llvm.memcpy.p0.p0.i64(ptr align 4 %19, ptr align 4 %7, i64 4, i1 false)
  %39 = getelementptr inbounds %class.XMMRegister, ptr %17, i32 0, i32 0
  %40 = load i32, ptr %39, align 4
  %41 = getelementptr inbounds %class.Register, ptr %19, i32 0, i32 0
  %42 = load i32, ptr %41, align 4
  call void @_ZN14MacroAssembler6movdquE11XMMRegister14AddressLiteral8Register(ptr noundef nonnull align 8 dereferenceable(40) %22, i32 %40, ptr noundef %18, i32 %42)
  br label %43

43:                                               ; preds = %38, %33
  br label %44

44:                                               ; preds = %43, %25
  ret void
}