; Function Attrs: mustprogress nounwind uwtable
define hidden void @_ZN14MacroAssembler7vmovdquE11XMMRegister14AddressLiterali8Register(ptr noundef nonnull align 8 dereferenceable(40) %0, i32 %1, ptr noundef %2, i32 noundef %3, i32 %4) local_unnamed_addr #0 align 2 {
  %6 = alloca %class.AddressLiteral, align 8
  %7 = alloca %class.AddressLiteral, align 8
  %8 = alloca %class.AddressLiteral, align 8
  %9 = load ptr, ptr %2, align 8
  %10 = getelementptr inbounds i8, ptr %9, i64 16
  %11 = load ptr, ptr %10, align 8
  %12 = getelementptr inbounds i8, ptr %2, i64 40
  switch i32 %3, label %17 [
    i32 2, label %13
    i32 1, label %15
  ]

13:                                               ; preds = %5
  call void %11(ptr noundef nonnull align 8 dereferenceable(20) %2, ptr noundef nonnull align 8 dereferenceable(40) %6) #18
  %14 = getelementptr inbounds i8, ptr %6, i64 40
  call void @llvm.memcpy.p0.p0.i64(ptr noundef nonnull align 8 dereferenceable(16) %14, ptr noundef nonnull align 8 dereferenceable(16) %12, i64 16, i1 false)
  call void @_ZN14MacroAssembler9evmovdquqE11XMMRegister14AddressLiterali8Register(ptr noundef nonnull align 8 dereferenceable(40) %0, i32 %1, ptr noundef nonnull %6, i32 noundef 2, i32 %4)
  br label %19

15:                                               ; preds = %5
  call void %11(ptr noundef nonnull align 8 dereferenceable(20) %2, ptr noundef nonnull align 8 dereferenceable(40) %7) #18
  %16 = getelementptr inbounds i8, ptr %7, i64 40
  call void @llvm.memcpy.p0.p0.i64(ptr noundef nonnull align 8 dereferenceable(16) %16, ptr noundef nonnull align 8 dereferenceable(16) %12, i64 16, i1 false)
  call void @_ZN14MacroAssembler7vmovdquE11XMMRegister14AddressLiteral8Register(ptr noundef nonnull align 8 dereferenceable(40) %0, i32 %1, ptr noundef nonnull %7, i32 %4)
  br label %19

17:                                               ; preds = %5
  call void %11(ptr noundef nonnull align 8 dereferenceable(20) %2, ptr noundef nonnull align 8 dereferenceable(40) %8) #18
  %18 = getelementptr inbounds i8, ptr %8, i64 40
  call void @llvm.memcpy.p0.p0.i64(ptr noundef nonnull align 8 dereferenceable(16) %18, ptr noundef nonnull align 8 dereferenceable(16) %12, i64 16, i1 false)
  call void @_ZN14MacroAssembler6movdquE11XMMRegister14AddressLiteral8Register(ptr noundef nonnull align 8 dereferenceable(40) %0, i32 %1, ptr noundef nonnull %8, i32 %4)
  br label %19

19:                                               ; preds = %15, %17, %13
  ret void
}